; Function Attrs: mustprogress uwtable
define noundef double @_ZNK8QuantLib35GeneralizedOrnsteinUhlenbeckProcess11expectationEddd(ptr noundef nonnull align 8 dereferenceable(224) %this, double noundef %t, double noundef %x0, double noundef %dt) unnamed_addr #6 align 2 {
entry:
  %__args.addr.i = alloca double, align 8
  %level_ = getelementptr inbounds nuw i8, ptr %this, i64 152
  %0 = load double, ptr %level_, align 8, !tbaa !47
  call void @llvm.lifetime.start.p0(i64 8, ptr nonnull %__args.addr.i)
  store double %t, ptr %__args.addr.i, align 8, !tbaa !59
  %_M_manager.i.i = getelementptr inbounds nuw i8, ptr %this, i64 176
  %1 = load ptr, ptr %_M_manager.i.i, align 8, !tbaa !49
  %tobool.not.i.i = icmp eq ptr %1, null
  br i1 %tobool.not.i.i, label %if.then.i, label %_ZNKSt8functionIFddEEclEd.exit

if.then.i:                                        ; preds = %entry
  tail call void @_ZSt25__throw_bad_function_callv() #26
  unreachable

_ZNKSt8functionIFddEEclEd.exit:                   ; preds = %entry
  %speed_ = getelementptr inbounds nuw i8, ptr %this, i64 160
  %sub = fsub double %x0, %0
  %_M_invoker.i = getelementptr inbounds nuw i8, ptr %this, i64 184
  %2 = load ptr, ptr %_M_invoker.i, align 8, !tbaa !48
  %call2.i = call noundef double %2(ptr noundef nonnull align 8 dereferenceable(16) %speed_, ptr noundef nonnull align 8 dereferenceable(8) %__args.addr.i)
  call void @llvm.lifetime.end.p0(i64 8, ptr nonnull %__args.addr.i)
  %fneg = fneg double %call2.i
  %mul = fmul double %dt, %fneg
  %call3 = call double @exp(double noundef %mul) #24, !tbaa !60
  %3 = call double @llvm.fmuladd.f64(double %sub, double %call3, double %0)
  ret double %3
}